target datalayout = "e-m:e-p270:32:32-p271:32:32-p272:64:64-i64:64-i128:128-f80:128-n8:16:32:64-S128"
target triple = "x86_64-pc-linux-gnu"

%struct._lv_arc_t = type { %struct._lv_obj_t, i32, float, float, float, float, i32, i32, i32, i8, i32, i32, float, i16 }
%struct._lv_obj_t = type { ptr, ptr, ptr, ptr, ptr, %struct.lv_area_t, i32, i16, i16 }
%struct.lv_area_t = type { i32, i32, i32, i32 }

; Function Attrs: nounwind uwtable
define void @lv_arc_set_range(ptr noundef %0, i32 noundef %1, i32 noundef %2) #0 {
  %4 = alloca ptr, align 8
  %5 = alloca i32, align 4
  %6 = alloca i32, align 4
  %7 = alloca ptr, align 8
  %8 = alloca i32, align 4
  store ptr %0, ptr %4, align 8, !tbaa !8
  store i32 %1, ptr %5, align 4, !tbaa !33
  store i32 %2, ptr %6, align 4, !tbaa !33
  br label %9

9:                                                ; preds = %3
  %10 = load ptr, ptr %4, align 8, !tbaa !8
  %11 = icmp ne ptr %10, null
  br i1 %11, label %16, label %12

12:                                               ; preds = %9
  br label %13

13:                                               ; preds = %12
  br label %14

14:                                               ; preds = %13
  br label %15

15:                                               ; preds = %14, %15
  br label %15

16:                                               ; preds = %9
  br label %17

17:                                               ; preds = %16
  call void @llvm.lifetime.start.p0(i64 8, ptr %7) #5
  %18 = load ptr, ptr %4, align 8, !tbaa !8
  store ptr %18, ptr %7, align 8, !tbaa !10
  %19 = load ptr, ptr %7, align 8, !tbaa !10
  %20 = getelementptr inbounds nuw %struct._lv_arc_t, ptr %19, i32 0, i32 7
  %21 = load i32, ptr %20, align 8, !tbaa !26
  %22 = load i32, ptr %5, align 4, !tbaa !33
  %23 = icmp eq i32 %21, %22
  br i1 %23, label %24, label %31

24:                                               ; preds = %17
  %25 = load ptr, ptr %7, align 8, !tbaa !10
  %26 = getelementptr inbounds nuw %struct._lv_arc_t, ptr %25, i32 0, i32 8
  %27 = load i32, ptr %26, align 4, !tbaa !27
  %28 = load i32, ptr %6, align 4, !tbaa !33
  %29 = icmp eq i32 %27, %28
  br i1 %29, label %30, label %31

30:                                               ; preds = %24
  store i32 1, ptr %8, align 4
  br label %59

31:                                               ; preds = %24, %17
  %32 = load i32, ptr %5, align 4, !tbaa !33
  %33 = load ptr, ptr %7, align 8, !tbaa !10
  %34 = getelementptr inbounds nuw %struct._lv_arc_t, ptr %33, i32 0, i32 7
  store i32 %32, ptr %34, align 8, !tbaa !26
  %35 = load i32, ptr %6, align 4, !tbaa !33
  %36 = load ptr, ptr %7, align 8, !tbaa !10
  %37 = getelementptr inbounds nuw %struct._lv_arc_t, ptr %36, i32 0, i32 8
  store i32 %35, ptr %37, align 4, !tbaa !27
  %38 = load ptr, ptr %7, align 8, !tbaa !10
  %39 = getelementptr inbounds nuw %struct._lv_arc_t, ptr %38, i32 0, i32 6
  %40 = load i32, ptr %39, align 4, !tbaa !25
  %41 = load i32, ptr %5, align 4, !tbaa !33
  %42 = icmp slt i32 %40, %41
  br i1 %42, label %43, label %47

43:                                               ; preds = %31
  %44 = load i32, ptr %5, align 4, !tbaa !33
  %45 = load ptr, ptr %7, align 8, !tbaa !10
  %46 = getelementptr inbounds nuw %struct._lv_arc_t, ptr %45, i32 0, i32 6
  store i32 %44, ptr %46, align 4, !tbaa !25
  br label %47

47:                                               ; preds = %43, %31
  %48 = load ptr, ptr %7, align 8, !tbaa !10
  %49 = getelementptr inbounds nuw %struct._lv_arc_t, ptr %48, i32 0, i32 6
  %50 = load i32, ptr %49, align 4, !tbaa !25
  %51 = load i32, ptr %6, align 4, !tbaa !33
  %52 = icmp sgt i32 %50, %51
  br i1 %52, label %53, label %57

53:                                               ; preds = %47
  %54 = load i32, ptr %6, align 4, !tbaa !33
  %55 = load ptr, ptr %7, align 8, !tbaa !10
  %56 = getelementptr inbounds nuw %struct._lv_arc_t, ptr %55, i32 0, i32 6
  store i32 %54, ptr %56, align 4, !tbaa !25
  br label %57

57:                                               ; preds = %53, %47
  %58 = load ptr, ptr %4, align 8, !tbaa !8
  call void @value_update(ptr noundef %58)
  store i32 0, ptr %8, align 4
  br label %59

59:                                               ; preds = %57, %30
  call void @llvm.lifetime.end.p0(i64 8, ptr %7) #5
  %60 = load i32, ptr %8, align 4
  switch i32 %60, label %62 [
    i32 0, label %61
    i32 1, label %61
  ]

61:                                               ; preds = %59, %59
  ret void

62:                                               ; preds = %59
  unreachable
}