; Function Attrs: nounwind uwtable
define void @lv_arc_set_range(ptr noundef %0, i32 noundef %1, i32 noundef %2) local_unnamed_addr #0 {
  %.not = icmp eq ptr %0, null
  br i1 %.not, label %.preheader, label %4

.preheader:                                       ; preds = %3, %.preheader
  br label %.preheader

4:                                                ; preds = %3
  %5 = getelementptr inbounds nuw i8, ptr %0, i64 88
  %6 = load i32, ptr %5, align 8, !tbaa !22
  %7 = icmp eq i32 %6, %1
  br i1 %7, label %8, label %12

8:                                                ; preds = %4
  %9 = getelementptr inbounds nuw i8, ptr %0, i64 92
  %10 = load i32, ptr %9, align 4, !tbaa !23
  %11 = icmp eq i32 %10, %2
  br i1 %11, label %20, label %12

12:                                               ; preds = %8, %4
  store i32 %1, ptr %5, align 8, !tbaa !22
  %13 = getelementptr inbounds nuw i8, ptr %0, i64 92
  store i32 %2, ptr %13, align 4, !tbaa !23
  %14 = getelementptr inbounds nuw i8, ptr %0, i64 84
  %15 = load i32, ptr %14, align 4, !tbaa !21
  %.not20 = icmp slt i32 %15, %1
  %16 = tail call i32 @llvm.smax.i32(i32 %15, i32 %1)
  %.not21 = icmp sgt i32 %16, %2
  %17 = or i1 %.not20, %.not21
  br i1 %17, label %18, label %19

18:                                               ; preds = %12
  %simplifycfg.merge = tail call i32 @llvm.smin.i32(i32 %16, i32 %2)
  store i32 %simplifycfg.merge, ptr %14, align 4, !tbaa !21
  br label %19

19:                                               ; preds = %12, %18
  tail call fastcc void @value_update(ptr noundef %0)
  br label %20

20:                                               ; preds = %8, %19
  ret void
}